; Function Attrs: nounwind uwtable
define i32 @ff_v4l2_context_set_format(ptr noundef %0) local_unnamed_addr #0 {
  %2 = getelementptr inbounds nuw i8, ptr %0, i64 8
  %3 = load i32, ptr %2, align 8, !tbaa !4
  %switch.tableidx = add i32 %3, -2
  %4 = icmp ult i32 %switch.tableidx, 13
  br i1 %4, label %switch.lookup, label %ctx_to_m2mctx.exit

switch.lookup:                                    ; preds = %1
  %5 = zext nneg i32 %switch.tableidx to i64
  %switch.gep = getelementptr inbounds nuw [13 x i64], ptr @switch.table.ff_v4l2_context_init.34, i64 0, i64 %5
  %switch.load = load i64, ptr %switch.gep, align 8
  br label %ctx_to_m2mctx.exit

ctx_to_m2mctx.exit:                               ; preds = %1, %switch.lookup
  %.sink.i = phi i64 [ %switch.load, %switch.lookup ], [ -4104, %1 ]
  %6 = getelementptr inbounds i8, ptr %0, i64 %.sink.i
  %7 = getelementptr inbounds nuw i8, ptr %6, i64 4096
  %8 = load i32, ptr %7, align 8, !tbaa !15
  %9 = getelementptr inbounds nuw i8, ptr %0, i64 24
  %10 = tail call i32 (i32, i64, ...) @ioctl(i32 noundef %8, i64 noundef 3234878981, ptr noundef nonnull %9) #8
  ret i32 %10
}